(lp0
S'Machine'
p1
aS'Characteristics'
p2
aS'ImageBase'
p3
aS'MinorOperatingSystemVersion'
p4
aS'MajorSubsystemVersion'
p5
aS'Subsystem'
p6
aS'DllCharacteristics'
p7
aS'SectionsMaxEntropy'
p8
aS'ResourcesMinEntropy'
p9
aS'ResourcesMaxEntropy'
p10
aS'VersionInformationSize'
p11
a.